; Function Attrs: mustprogress nofree norecurse nosync nounwind willreturn memory(argmem: readwrite) uwtable
define noundef nonnull align 8 dereferenceable(16) ptr @_ZN5arrow15BasicDecimal128lSEj(ptr noundef nonnull returned align 8 captures(ret: address, provenance) dereferenceable(16) %0, i32 noundef %1) local_unnamed_addr #5 align 2 {
  %.not = icmp eq i32 %1, 0
  br i1 %.not, label %24, label %3

3:                                                ; preds = %2
  %4 = icmp ult i32 %1, 64
  br i1 %4, label %5, label %16

5:                                                ; preds = %3
  %6 = getelementptr inbounds nuw i8, ptr %0, i64 8
  %7 = load i64, ptr %6, align 8, !tbaa !7
  %8 = zext nneg i32 %1 to i64
  %9 = shl i64 %7, %8
  %10 = load i64, ptr %0, align 8, !tbaa !7
  %11 = sub nuw nsw i32 64, %1
  %12 = zext nneg i32 %11 to i64
  %13 = lshr i64 %10, %12
  %14 = or i64 %13, %9
  %15 = shl i64 %10, %8
  br label %23

16:                                               ; preds = %3
  %17 = icmp ult i32 %1, 128
  br i1 %17, label %18, label %23

18:                                               ; preds = %16
  %19 = load i64, ptr %0, align 8, !tbaa !7
  %20 = add nsw i32 %1, -64
  %21 = zext nneg i32 %20 to i64
  %22 = shl i64 %19, %21
  br label %23

23:                                               ; preds = %16, %18, %5
  %.010 = phi i64 [ %15, %5 ], [ 0, %18 ], [ 0, %16 ]
  %.0 = phi i64 [ %14, %5 ], [ %22, %18 ], [ 0, %16 ]
  store i64 %.010, ptr %0, align 8
  %.sroa.4.0..sroa_idx = getelementptr inbounds nuw i8, ptr %0, i64 8
  store i64 %.0, ptr %.sroa.4.0..sroa_idx, align 8
  br label %24

24:                                               ; preds = %23, %2
  ret ptr %0
}